; Function Attrs: nounwind uwtable
define nonnull ptr @Acb_ObjCollectTfoVec(ptr noundef %0, ptr noundef readonly captures(none) %1) local_unnamed_addr #0 {
  %3 = getelementptr i8, ptr %0, i64 436
  %.val12 = load i32, ptr %3, align 4, !tbaa !36
  %4 = icmp slt i32 %.val12, 1
  br i1 %4, label %5, label %6

5:                                                ; preds = %2
  tail call fastcc void @Acb_NtkCreateFanout(ptr noundef nonnull %0)
  br label %6

6:                                                ; preds = %5, %2
  %7 = getelementptr inbounds nuw i8, ptr %0, i64 540
  store i32 0, ptr %7, align 4, !tbaa !27
  %8 = getelementptr i8, ptr %0, i64 260
  %.val.i = load i32, ptr %8, align 4, !tbaa !27
  %9 = icmp slt i32 %.val.i, 1
  br i1 %9, label %10, label %Acb_NtkIncTravId.exit

10:                                               ; preds = %6
  %11 = getelementptr inbounds nuw i8, ptr %0, i64 256
  %12 = getelementptr inbounds nuw i8, ptr %0, i64 112
  %.val.i.i = load i32, ptr %12, align 8, !tbaa !29
  %13 = load i32, ptr %11, align 8, !tbaa !28
  %.not.i.i.i.i = icmp slt i32 %13, %.val.i.i
  br i1 %.not.i.i.i.i, label %14, label %Vec_IntGrow.exit.i.i.i

14:                                               ; preds = %10
  %15 = getelementptr inbounds nuw i8, ptr %0, i64 264
  %16 = load ptr, ptr %15, align 8, !tbaa !21
  %.not9.i.i.i.i = icmp eq ptr %16, null
  %17 = sext i32 %.val.i.i to i64
  %18 = shl nsw i64 %17, 2
  br i1 %.not9.i.i.i.i, label %21, label %19

19:                                               ; preds = %14
  %20 = tail call ptr @realloc(ptr noundef nonnull %16, i64 noundef %18) #25
  br label %23

21:                                               ; preds = %14
  %22 = tail call noalias ptr @malloc(i64 noundef %18) #26
  br label %23

23:                                               ; preds = %21, %19
  %24 = phi ptr [ %20, %19 ], [ %22, %21 ]
  store ptr %24, ptr %15, align 8, !tbaa !21
  store i32 %.val.i.i, ptr %11, align 8, !tbaa !28
  br label %Vec_IntGrow.exit.i.i.i

Vec_IntGrow.exit.i.i.i:                           ; preds = %23, %10
  %25 = icmp sgt i32 %.val.i.i, 0
  br i1 %25, label %.lr.ph.i.i.i, label %Acb_NtkCleanObjTravs.exit.i

.lr.ph.i.i.i:                                     ; preds = %Vec_IntGrow.exit.i.i.i
  %26 = getelementptr inbounds nuw i8, ptr %0, i64 264
  %27 = load ptr, ptr %26, align 8, !tbaa !21
  %wide.trip.count.i.i.i = zext nneg i32 %.val.i.i to i64
  %28 = shl nuw nsw i64 %wide.trip.count.i.i.i, 2
  tail call void @llvm.memset.p0.i64(ptr align 4 %27, i8 0, i64 %28, i1 false), !tbaa !22
  br label %Acb_NtkCleanObjTravs.exit.i

Acb_NtkCleanObjTravs.exit.i:                      ; preds = %.lr.ph.i.i.i, %Vec_IntGrow.exit.i.i.i
  store i32 %.val.i.i, ptr %8, align 4, !tbaa !27
  br label %Acb_NtkIncTravId.exit

Acb_NtkIncTravId.exit:                            ; preds = %6, %Acb_NtkCleanObjTravs.exit.i
  %29 = getelementptr inbounds nuw i8, ptr %0, i64 96
  %30 = load i32, ptr %29, align 8, !tbaa !3
  %31 = add nsw i32 %30, 1
  store i32 %31, ptr %29, align 8, !tbaa !3
  %32 = getelementptr i8, ptr %1, i64 4
  %.val1113 = load i32, ptr %32, align 4, !tbaa !27
  %33 = icmp sgt i32 %.val1113, 0
  br i1 %33, label %.lr.ph, label %.critedge

.lr.ph:                                           ; preds = %Acb_NtkIncTravId.exit
  %34 = getelementptr i8, ptr %1, i64 8
  br label %35

35:                                               ; preds = %.lr.ph, %35
  %indvars.iv = phi i64 [ 0, %.lr.ph ], [ %indvars.iv.next, %35 ]
  %.val = load ptr, ptr %34, align 8, !tbaa !21
  %36 = getelementptr inbounds nuw i32, ptr %.val, i64 %indvars.iv
  %37 = load i32, ptr %36, align 4, !tbaa !22
  tail call void @Acb_ObjCollectTfo_rec(ptr noundef %0, i32 noundef %37, i32 noundef 0)
  %indvars.iv.next = add nuw nsw i64 %indvars.iv, 1
  %.val11 = load i32, ptr %32, align 4, !tbaa !27
  %38 = sext i32 %.val11 to i64
  %39 = icmp slt i64 %indvars.iv.next, %38
  br i1 %39, label %35, label %.critedge, !llvm.loop !37

.critedge:                                        ; preds = %35, %Acb_NtkIncTravId.exit
  %40 = getelementptr inbounds nuw i8, ptr %0, i64 536
  ret ptr %40
}